; Function Attrs: mustprogress nounwind uwtable
define internal void @_ZL37hb_outline_recording_pen_quadratic_toP15hb_draw_funcs_tPvP15hb_draw_state_tffffS1_(ptr nocapture readnone %0, ptr nocapture noundef %1, ptr nocapture readnone %2, float noundef %3, float noundef %4, float noundef %5, float noundef %6, ptr nocapture readnone %7) #5 {
  %9 = getelementptr inbounds i8, ptr %1, i64 4
  %10 = load i32, ptr %9, align 4
  %11 = load i32, ptr %1, align 8
  %.not.i = icmp slt i32 %10, %11
  br i1 %.not.i, label %_ZN11hb_vector_tI18hb_outline_point_tLb0EE5allocEjb.exit.thread.i, label %12

12:                                               ; preds = %8
  %13 = add i32 %10, 1
  %14 = icmp slt i32 %11, 0
  br i1 %14, label %_ZN11hb_vector_tI18hb_outline_point_tLb0EE5allocEjb.exit.thread6.i, label %15

15:                                               ; preds = %12
  %.not.i.i = icmp ult i32 %11, %13
  br i1 %.not.i.i, label %.preheader.i.i, label %_ZN11hb_vector_tI18hb_outline_point_tLb0EE5allocEjb.exit.thread.i

.preheader.i.i:                                   ; preds = %15, %.preheader.i.i
  %.01542.i.i = phi i32 [ %18, %.preheader.i.i ], [ %11, %15 ]
  %16 = lshr i32 %.01542.i.i, 1
  %17 = add i32 %.01542.i.i, 8
  %18 = add i32 %17, %16
  %19 = icmp ult i32 %18, %13
  br i1 %19, label %.preheader.i.i, label %.thread.i.i, !llvm.loop !12

.thread.i.i:                                      ; preds = %.preheader.i.i
  %20 = icmp ugt i32 %18, 357913941
  br i1 %20, label %_ZN11hb_vector_tI18hb_outline_point_tLb0EE5allocEjb.exit.thread9.i, label %_ZN11hb_vector_tI18hb_outline_point_tLb0EE14realloc_vectorIS0_TnPN12hb_enable_ifIXsr3std28is_trivially_copy_assignableIT_EE5valueEvE4typeELPv0EEEPS0_j11hb_priorityILj0EE.exit.i.i

_ZN11hb_vector_tI18hb_outline_point_tLb0EE14realloc_vectorIS0_TnPN12hb_enable_ifIXsr3std28is_trivially_copy_assignableIT_EE5valueEvE4typeELPv0EEEPS0_j11hb_priorityILj0EE.exit.i.i: ; preds = %.thread.i.i
  %21 = getelementptr inbounds i8, ptr %1, i64 8
  %22 = load ptr, ptr %21, align 8
  %23 = zext nneg i32 %18 to i64
  %24 = mul nuw nsw i64 %23, 12
  %25 = tail call ptr @realloc(ptr noundef %22, i64 noundef %24) #11
  %.not43.i.i = icmp eq ptr %25, null
  br i1 %.not43.i.i, label %26, label %_ZN11hb_vector_tI18hb_outline_point_tLb0EE5allocEjb.exit.i

26:                                               ; preds = %_ZN11hb_vector_tI18hb_outline_point_tLb0EE14realloc_vectorIS0_TnPN12hb_enable_ifIXsr3std28is_trivially_copy_assignableIT_EE5valueEvE4typeELPv0EEEPS0_j11hb_priorityILj0EE.exit.i.i
  %27 = load i32, ptr %1, align 8
  %.not21.i.i = icmp ugt i32 %18, %27
  br i1 %.not21.i.i, label %_ZN11hb_vector_tI18hb_outline_point_tLb0EE5allocEjb.exit.thread9.i, label %_ZN11hb_vector_tI18hb_outline_point_tLb0EE5allocEjb.exit.thread.i

_ZN11hb_vector_tI18hb_outline_point_tLb0EE5allocEjb.exit.thread9.i: ; preds = %26, %.thread.i.i
  %.138.sink.i.ph.in.i = phi i32 [ %11, %.thread.i.i ], [ %27, %26 ]
  %.138.sink.i.ph.i = xor i32 %.138.sink.i.ph.in.i, -1
  store i32 %.138.sink.i.ph.i, ptr %1, align 8
  br label %_ZN11hb_vector_tI18hb_outline_point_tLb0EE5allocEjb.exit.thread6.i

_ZN11hb_vector_tI18hb_outline_point_tLb0EE5allocEjb.exit.i: ; preds = %_ZN11hb_vector_tI18hb_outline_point_tLb0EE14realloc_vectorIS0_TnPN12hb_enable_ifIXsr3std28is_trivially_copy_assignableIT_EE5valueEvE4typeELPv0EEEPS0_j11hb_priorityILj0EE.exit.i.i
  store ptr %25, ptr %21, align 8
  store i32 %18, ptr %1, align 8
  br label %_ZN11hb_vector_tI18hb_outline_point_tLb0EE5allocEjb.exit.thread.i

_ZN11hb_vector_tI18hb_outline_point_tLb0EE5allocEjb.exit.thread6.i: ; preds = %_ZN11hb_vector_tI18hb_outline_point_tLb0EE5allocEjb.exit.thread9.i, %12
  tail call void @llvm.memcpy.p0.p0.i64(ptr noundef nonnull align 16 dereferenceable(12) @_hb_CrapPool, ptr noundef nonnull align 16 dereferenceable(12) @_hb_NullPool, i64 12, i1 false)
  br label %_ZN11hb_vector_tI18hb_outline_point_tLb0EE4pushIJS0_EEEPS0_DpOT_.exit

_ZN11hb_vector_tI18hb_outline_point_tLb0EE5allocEjb.exit.thread.i: ; preds = %_ZN11hb_vector_tI18hb_outline_point_tLb0EE5allocEjb.exit.i, %26, %15, %8
  %28 = getelementptr inbounds i8, ptr %1, i64 8
  %29 = load ptr, ptr %28, align 8
  %30 = load i32, ptr %9, align 4
  %31 = add i32 %30, 1
  store i32 %31, ptr %9, align 4
  %32 = zext i32 %30 to i64
  %33 = getelementptr inbounds %struct.hb_outline_point_t, ptr %29, i64 %32
  store float %3, ptr %33, align 4
  %.sroa.224.0..sroa_idx = getelementptr inbounds i8, ptr %33, i64 4
  store float %4, ptr %.sroa.224.0..sroa_idx, align 4
  %.sroa.325.0..sroa_idx = getelementptr inbounds i8, ptr %33, i64 8
  store i32 2, ptr %.sroa.325.0..sroa_idx, align 4
  br label %_ZN11hb_vector_tI18hb_outline_point_tLb0EE4pushIJS0_EEEPS0_DpOT_.exit

_ZN11hb_vector_tI18hb_outline_point_tLb0EE4pushIJS0_EEEPS0_DpOT_.exit: ; preds = %_ZN11hb_vector_tI18hb_outline_point_tLb0EE5allocEjb.exit.thread6.i, %_ZN11hb_vector_tI18hb_outline_point_tLb0EE5allocEjb.exit.thread.i
  %34 = load i32, ptr %9, align 4
  %35 = load i32, ptr %1, align 8
  %.not.i7 = icmp slt i32 %34, %35
  br i1 %.not.i7, label %_ZN11hb_vector_tI18hb_outline_point_tLb0EE5allocEjb.exit.thread.i9, label %36

36:                                               ; preds = %_ZN11hb_vector_tI18hb_outline_point_tLb0EE4pushIJS0_EEEPS0_DpOT_.exit
  %37 = add i32 %34, 1
  %38 = icmp slt i32 %35, 0
  br i1 %38, label %_ZN11hb_vector_tI18hb_outline_point_tLb0EE5allocEjb.exit.thread6.i21, label %39

39:                                               ; preds = %36
  %.not.i.i8 = icmp ult i32 %35, %37
  br i1 %.not.i.i8, label %.preheader.i.i11, label %_ZN11hb_vector_tI18hb_outline_point_tLb0EE5allocEjb.exit.thread.i9

.preheader.i.i11:                                 ; preds = %39, %.preheader.i.i11
  %.01542.i.i12 = phi i32 [ %42, %.preheader.i.i11 ], [ %35, %39 ]
  %40 = lshr i32 %.01542.i.i12, 1
  %41 = add i32 %.01542.i.i12, 8
  %42 = add i32 %41, %40
  %43 = icmp ult i32 %42, %37
  br i1 %43, label %.preheader.i.i11, label %.thread.i.i13, !llvm.loop !12

.thread.i.i13:                                    ; preds = %.preheader.i.i11
  %44 = icmp ugt i32 %42, 357913941
  br i1 %44, label %_ZN11hb_vector_tI18hb_outline_point_tLb0EE5allocEjb.exit.thread9.i18, label %_ZN11hb_vector_tI18hb_outline_point_tLb0EE14realloc_vectorIS0_TnPN12hb_enable_ifIXsr3std28is_trivially_copy_assignableIT_EE5valueEvE4typeELPv0EEEPS0_j11hb_priorityILj0EE.exit.i.i14

_ZN11hb_vector_tI18hb_outline_point_tLb0EE14realloc_vectorIS0_TnPN12hb_enable_ifIXsr3std28is_trivially_copy_assignableIT_EE5valueEvE4typeELPv0EEEPS0_j11hb_priorityILj0EE.exit.i.i14: ; preds = %.thread.i.i13
  %45 = getelementptr inbounds i8, ptr %1, i64 8
  %46 = load ptr, ptr %45, align 8
  %47 = zext nneg i32 %42 to i64
  %48 = mul nuw nsw i64 %47, 12
  %49 = tail call ptr @realloc(ptr noundef %46, i64 noundef %48) #11
  %.not43.i.i15 = icmp eq ptr %49, null
  br i1 %.not43.i.i15, label %50, label %_ZN11hb_vector_tI18hb_outline_point_tLb0EE5allocEjb.exit.i16

50:                                               ; preds = %_ZN11hb_vector_tI18hb_outline_point_tLb0EE14realloc_vectorIS0_TnPN12hb_enable_ifIXsr3std28is_trivially_copy_assignableIT_EE5valueEvE4typeELPv0EEEPS0_j11hb_priorityILj0EE.exit.i.i14
  %51 = load i32, ptr %1, align 8
  %.not21.i.i17 = icmp ugt i32 %42, %51
  br i1 %.not21.i.i17, label %_ZN11hb_vector_tI18hb_outline_point_tLb0EE5allocEjb.exit.thread9.i18, label %_ZN11hb_vector_tI18hb_outline_point_tLb0EE5allocEjb.exit.thread.i9

_ZN11hb_vector_tI18hb_outline_point_tLb0EE5allocEjb.exit.thread9.i18: ; preds = %50, %.thread.i.i13
  %.138.sink.i.ph.in.i19 = phi i32 [ %35, %.thread.i.i13 ], [ %51, %50 ]
  %.138.sink.i.ph.i20 = xor i32 %.138.sink.i.ph.in.i19, -1
  store i32 %.138.sink.i.ph.i20, ptr %1, align 8
  br label %_ZN11hb_vector_tI18hb_outline_point_tLb0EE5allocEjb.exit.thread6.i21

_ZN11hb_vector_tI18hb_outline_point_tLb0EE5allocEjb.exit.i16: ; preds = %_ZN11hb_vector_tI18hb_outline_point_tLb0EE14realloc_vectorIS0_TnPN12hb_enable_ifIXsr3std28is_trivially_copy_assignableIT_EE5valueEvE4typeELPv0EEEPS0_j11hb_priorityILj0EE.exit.i.i14
  store ptr %49, ptr %45, align 8
  store i32 %42, ptr %1, align 8
  br label %_ZN11hb_vector_tI18hb_outline_point_tLb0EE5allocEjb.exit.thread.i9

_ZN11hb_vector_tI18hb_outline_point_tLb0EE5allocEjb.exit.thread6.i21: ; preds = %_ZN11hb_vector_tI18hb_outline_point_tLb0EE5allocEjb.exit.thread9.i18, %36
  tail call void @llvm.memcpy.p0.p0.i64(ptr noundef nonnull align 16 dereferenceable(12) @_hb_CrapPool, ptr noundef nonnull align 16 dereferenceable(12) @_hb_NullPool, i64 12, i1 false)
  br label %_ZN11hb_vector_tI18hb_outline_point_tLb0EE4pushIJS0_EEEPS0_DpOT_.exit22

_ZN11hb_vector_tI18hb_outline_point_tLb0EE5allocEjb.exit.thread.i9: ; preds = %_ZN11hb_vector_tI18hb_outline_point_tLb0EE5allocEjb.exit.i16, %50, %39, %_ZN11hb_vector_tI18hb_outline_point_tLb0EE4pushIJS0_EEEPS0_DpOT_.exit
  %52 = getelementptr inbounds i8, ptr %1, i64 8
  %53 = load ptr, ptr %52, align 8
  %54 = load i32, ptr %9, align 4
  %55 = add i32 %54, 1
  store i32 %55, ptr %9, align 4
  %56 = zext i32 %54 to i64
  %57 = getelementptr inbounds %struct.hb_outline_point_t, ptr %53, i64 %56
  store float %5, ptr %57, align 4
  %.sroa.2.0..sroa_idx = getelementptr inbounds i8, ptr %57, i64 4
  store float %6, ptr %.sroa.2.0..sroa_idx, align 4
  %.sroa.3.0..sroa_idx = getelementptr inbounds i8, ptr %57, i64 8
  store i32 2, ptr %.sroa.3.0..sroa_idx, align 4
  br label %_ZN11hb_vector_tI18hb_outline_point_tLb0EE4pushIJS0_EEEPS0_DpOT_.exit22

_ZN11hb_vector_tI18hb_outline_point_tLb0EE4pushIJS0_EEEPS0_DpOT_.exit22: ; preds = %_ZN11hb_vector_tI18hb_outline_point_tLb0EE5allocEjb.exit.thread6.i21, %_ZN11hb_vector_tI18hb_outline_point_tLb0EE5allocEjb.exit.thread.i9
  ret void
}